Certificate:
    Data:
        Version: 3 (0x2)
        Serial Number: 12 (0xc)
    Signature Algorithm: sha256WithRSAEncryption
        Issuer: C=US, ST=CA, O=CloudFoundry, CN=xip.io
        Validity
            Not Before: Jun  5 23:28:14 2015 GMT
            Not After : Apr 13 23:28:14 2025 GMT
        Subject: C=US, ST=California, L=CloudFoundry, CN=*.xip.io
        Subject Public Key Info:
            Public Key Algorithm: rsaEncryption
                Public-Key: (2048 bit)
                Modulus:
                    00:a8:9a:f4:a0:21:37:c1:13:9b:0a:b7:ed:3f:d5:
                    4a:4e:45:ec:fc:20:3f:bd:40:9a:92:2d:da:f8:af:
                    6a:3b:64:30:f2:f8:87:f9:c1:69:90:90:05:4b:89:
                    20:a0:bd:42:28:fb:60:63:f1:76:7c:6b:bd:bc:ed:
                    be:be:3d:2f:ff:06:9e:66:91:a7:25:ce:c3:06:78:
                    68:97:92:0e:0a:6a:2a:3b:fd:ed:f2:c6:e9:5f:03:
                    24:02:d4:b0:8b:91:a7:05:90:3c:1a:de:d4:3c:9f:
                    0b:92:57:a7:c5:0d:b4:79:d1:03:cb:b7:02:92:ce:
                    c1:f7:ba:55:07:e1:ed:0d:e7:44:f0:c3:ef:77:0a:
                    e8:78:ee:d7:ac:50:a1:e7:56:9b:8a:c1:93:fd:98:
                    4e:65:87:01:f0:6c:5a:a6:a1:9f:35:0c:d3:23:9f:
                    a4:ad:d3:e9:dc:a4:d1:88:1f:8d:45:50:b5:0a:f7:
                    54:a4:78:28:bd:f0:ea:a7:8a:61:e9:75:d4:0a:2a:
                    7b:cc:60:c7:3d:5e:20:6f:a1:88:86:6b:e4:c3:23:
                    96:85:05:fa:3a:8a:65:fb:41:81:5a:52:aa:b7:e3:
                    ad:e2:45:ea:59:eb:da:32:0b:f7:c9:d5:08:f6:e4:
                    c0:ec:74:c4:ef:e3:4a:46:85:6c:96:fc:be:dd:64:
                    3a:21
                Exponent: 65537 (0x10001)
        X509v3 extensions:
            X509v3 Basic Constraints: 
                CA:FALSE
            Netscape Comment: 
                OpenSSL Generated Certificate
            X509v3 Subject Key Identifier: 
                A7:FE:F0:9A:9A:F4:59:CD:F3:F6:0A:B8:41:01:31:08:5F:D5:AE:DE
            X509v3 Authority Key Identifier: 
                keyid:3E:F5:BD:AE:C5:51:7B:22:FE:62:9B:27:86:CE:B0:3C:0D:19:16:09

    Signature Algorithm: sha256WithRSAEncryption
         16:d9:76:59:22:27:6f:9a:56:ca:ab:05:64:9d:0a:3c:3d:22:
         ac:72:94:a1:13:97:46:02:96:cc:c5:fe:9b:28:84:89:a9:08:
         c2:a6:fa:aa:7c:40:82:82:dc:ab:5c:19:93:e9:82:4d:e0:f4:
         10:72:4b:a7:d9:69:ea:15:35:13:04:7f:20:90:f0:52:45:45:
         ea:a4:9a:09:f9:51:62:f1:75:9b:99:41:84:a3:02:1f:ac:99:
         ed:06:33:5d:86:e3:0d:b8:d4:58:1c:2c:fa:9a:70:ec:8f:4d:
         3d:ac:5e:7c:07:2e:ff:13:8d:f3:38:20:d7:33:72:19:b5:b7:
         6c:f8:33:e9:b7:a7:fa:d3:a6:b3:fb:60:3f:5e:20:0c:40:dd:
         80:a3:e9:8e:15:f6:f0:74:8c:c7:b9:f0:7d:9a:69:44:8e:18:
         e8:50:ac:3c:a7:e4:50:fa:88:3f:e2:62:85:b2:fd:81:2d:9e:
         f1:c1:14:73:e1:ab:d9:19:fc:7f:f3:53:40:ff:fb:5b:8d:01:
         4a:85:eb:f6:3d:bc:07:63:a7:e3:4e:87:27:59:6e:14:8a:96:
         cd:e3:c0:42:ba:6e:e2:b2:46:fd:18:9d:e5:4c:7d:6d:85:05:
         7b:66:20:6d:77:c7:5e:33:74:1b:f3:34:3a:68:e0:d8:f7:b6:
         27:55:a5:4d
-----BEGIN CERTIFICATE-----
MIIDhDCCAmygAwIBAgIBDDANBgkqhkiG9w0BAQsFADBCMQswCQYDVQQGEwJVUzEL
MAkGA1UECAwCQ0ExFTATBgNVBAoMDENsb3VkRm91bmRyeTEPMA0GA1UEAwwGeGlw
LmlvMB4XDTE1MDYwNTIzMjgxNFoXDTI1MDQxMzIzMjgxNFowTDELMAkGA1UEBhMC
VVMxEzARBgNVBAgMCkNhbGlmb3JuaWExFTATBgNVBAcMDENsb3VkRm91bmRyeTER
MA8GA1UEAwwIKi54aXAuaW8wggEiMA0GCSqGSIb3DQEBAQUAA4IBDwAwggEKAoIB
AQComvSgITfBE5sKt+0/1UpORez8ID+9QJqSLdr4r2o7ZDDy+If5wWmQkAVLiSCg
vUIo+2Bj8XZ8a7287b6+PS//Bp5mkaclzsMGeGiXkg4Kaio7/e3yxulfAyQC1LCL
kacFkDwa3tQ8nwuSV6fFDbR50QPLtwKSzsH3ulUH4e0N50Tww+93Cuh47tesUKHn
VpuKwZP9mE5lhwHwbFqmoZ81DNMjn6St0+ncpNGIH41FULUK91SkeCi98OqnimHp
ddQKKnvMYMc9XiBvoYiGa+TDI5aFBfo6imX7QYFaUqq3463iRepZ69oyC/fJ1Qj2
5MDsdMTv40pGhWyW/L7dZDohAgMBAAGjezB5MAkGA1UdEwQCMAAwLAYJYIZIAYb4
QgENBB8WHU9wZW5TU0wgR2VuZXJhdGVkIENlcnRpZmljYXRlMB0GA1UdDgQWBBSn
/vCamvRZzfP2CrhBATEIX9Wu3jAfBgNVHSMEGDAWgBQ+9b2uxVF7Iv5imyeGzrA8
DRkWCTANBgkqhkiG9w0BAQsFAAOCAQEAFtl2WSInb5pWyqsFZJ0KPD0irHKUoROX
RgKWzMX+myiEiakIwqb6qnxAgoLcq1wZk+mCTeD0EHJLp9lp6hU1EwR/IJDwUkVF
6qSaCflRYvF1m5lBhKMCH6yZ7QYzXYbjDbjUWBws+ppw7I9NPaxefAcu/xON8zgg
1zNyGbW3bPgz6ben+tOms/tgP14gDEDdgKPpjhX28HSMx7nwfZppRI4Y6FCsPKfk
UPqIP+JihbL9gS2e8cEUc+Gr2Rn8f/NTQP/7W40BSoXr9j28B2On406HJ1luFIqW
zePAQrpu4rJG/Rid5Ux9bYUFe2YgbXfHXjN0G/M0Omjg2Pe2J1WlTQ==
-----END CERTIFICATE-----
